target datalayout = "e-m:e-p270:32:32-p271:32:32-p272:64:64-i64:64-i128:128-f80:128-n8:16:32:64-S128"
target triple = "x86_64-pc-linux-gnu"

%struct.Abc_Ntk_t_ = type { i32, i32, ptr, ptr, ptr, ptr, ptr, ptr, ptr, ptr, ptr, ptr, ptr, [11 x i32], i32, i32, i32, i32, ptr, i32, ptr, ptr, i32, i32, i32, double, i32, %struct.Vec_Int_t_, ptr, ptr, ptr, ptr, ptr, float, i32, ptr, ptr, ptr, ptr, ptr, ptr, ptr, ptr, ptr, ptr, ptr, ptr, ptr, ptr, ptr, ptr, ptr, ptr, ptr, ptr, ptr, ptr }
%struct.Vec_Int_t_ = type { i32, i32, ptr }
%struct.Vec_Ptr_t_ = type { i32, i32, ptr }
%struct.Abc_Obj_t_ = type { ptr, ptr, i32, i32, %struct.Vec_Int_t_, %struct.Vec_Int_t_, %union.anon, %union.anon.0 }
%union.anon = type { ptr }
%union.anon.0 = type { ptr }

@.str.1 = private unnamed_addr constant [5 x i8] c"1'b0\00", align 1
@.str.2 = private unnamed_addr constant [5 x i8] c"1'b1\00", align 1

; Function Attrs: inlinehint nounwind uwtable
define internal ptr @Vec_PtrEntry(ptr noundef %0, i32 noundef %1) #4 {
  %3 = alloca ptr, align 8
  %4 = alloca i32, align 4
  store ptr %0, ptr %3, align 8, !tbaa !42
  store i32 %1, ptr %4, align 4, !tbaa !3
  %5 = load ptr, ptr %3, align 8, !tbaa !42
  %6 = getelementptr inbounds nuw %struct.Vec_Ptr_t_, ptr %5, i32 0, i32 2
  %7 = load ptr, ptr %6, align 8, !tbaa !46
  %8 = load i32, ptr %4, align 4, !tbaa !3
  %9 = sext i32 %8 to i64
  %10 = getelementptr inbounds ptr, ptr %7, i64 %9
  %11 = load ptr, ptr %10, align 8, !tbaa !47
  ret ptr %11
}

; Function Attrs: inlinehint nounwind uwtable
define internal i32 @Vec_PtrSize(ptr noundef %0) #4 {
  %2 = alloca ptr, align 8
  store ptr %0, ptr %2, align 8, !tbaa !42
  %3 = load ptr, ptr %2, align 8, !tbaa !42
  %4 = getelementptr inbounds nuw %struct.Vec_Ptr_t_, ptr %3, i32 0, i32 1
  %5 = load i32, ptr %4, align 4, !tbaa !43
  ret i32 %5
}

; Function Attrs: inlinehint nounwind uwtable
define internal i32 @Abc_ObjFaninNum(ptr noundef %0) #4 {
  %2 = alloca ptr, align 8
  store ptr %0, ptr %2, align 8, !tbaa !53
  %3 = load ptr, ptr %2, align 8, !tbaa !53
  %4 = getelementptr inbounds nuw %struct.Abc_Obj_t_, ptr %3, i32 0, i32 4
  %5 = getelementptr inbounds nuw %struct.Vec_Int_t_, ptr %4, i32 0, i32 1
  %6 = load i32, ptr %5, align 4, !tbaa !91
  ret i32 %6
}

; Function Attrs: inlinehint nounwind uwtable
define internal i32 @Abc_ObjFanoutNum(ptr noundef %0) #4 {
  %2 = alloca ptr, align 8
  store ptr %0, ptr %2, align 8, !tbaa !53
  %3 = load ptr, ptr %2, align 8, !tbaa !53
  %4 = getelementptr inbounds nuw %struct.Abc_Obj_t_, ptr %3, i32 0, i32 5
  %5 = getelementptr inbounds nuw %struct.Vec_Int_t_, ptr %4, i32 0, i32 1
  %6 = load i32, ptr %5, align 4, !tbaa !90
  ret i32 %6
}

; Function Attrs: inlinehint nounwind uwtable
define internal ptr @Abc_ObjFanin0(ptr noundef %0) #4 {
  %2 = alloca ptr, align 8
  store ptr %0, ptr %2, align 8, !tbaa !53
  %3 = load ptr, ptr %2, align 8, !tbaa !53
  %4 = getelementptr inbounds nuw %struct.Abc_Obj_t_, ptr %3, i32 0, i32 0
  %5 = load ptr, ptr %4, align 8, !tbaa !83
  %6 = getelementptr inbounds nuw %struct.Abc_Ntk_t_, ptr %5, i32 0, i32 5
  %7 = load ptr, ptr %6, align 8, !tbaa !27
  %8 = getelementptr inbounds nuw %struct.Vec_Ptr_t_, ptr %7, i32 0, i32 2
  %9 = load ptr, ptr %8, align 8, !tbaa !46
  %10 = load ptr, ptr %2, align 8, !tbaa !53
  %11 = getelementptr inbounds nuw %struct.Abc_Obj_t_, ptr %10, i32 0, i32 4
  %12 = getelementptr inbounds nuw %struct.Vec_Int_t_, ptr %11, i32 0, i32 2
  %13 = load ptr, ptr %12, align 8, !tbaa !85
  %14 = getelementptr inbounds i32, ptr %13, i64 0
  %15 = load i32, ptr %14, align 4, !tbaa !3
  %16 = sext i32 %15 to i64
  %17 = getelementptr inbounds ptr, ptr %9, i64 %16
  %18 = load ptr, ptr %17, align 8, !tbaa !47
  ret ptr %18
}

; Function Attrs: inlinehint nounwind uwtable
define internal ptr @Abc_NtkCreateBo(ptr noundef %0) #4 {
  %2 = alloca ptr, align 8
  store ptr %0, ptr %2, align 8, !tbaa !7
  %3 = load ptr, ptr %2, align 8, !tbaa !7
  %4 = call ptr @Abc_NtkCreateObj(ptr noundef %3, i32 noundef 5)
  ret ptr %4
}

; Function Attrs: inlinehint nounwind uwtable
define internal ptr @Abc_NtkPo(ptr noundef %0, i32 noundef %1) #4 {
  %3 = alloca ptr, align 8
  %4 = alloca i32, align 4
  store ptr %0, ptr %3, align 8, !tbaa !7
  store i32 %1, ptr %4, align 4, !tbaa !3
  %5 = load ptr, ptr %3, align 8, !tbaa !7
  %6 = getelementptr inbounds nuw %struct.Abc_Ntk_t_, ptr %5, i32 0, i32 7
  %7 = load ptr, ptr %6, align 8, !tbaa !30
  %8 = load i32, ptr %4, align 4, !tbaa !3
  %9 = call ptr @Vec_PtrEntry(ptr noundef %7, i32 noundef %8)
  ret ptr %9
}

; Function Attrs: inlinehint nounwind uwtable
define internal i32 @Abc_NtkPoNum(ptr noundef %0) #4 {
  %2 = alloca ptr, align 8
  store ptr %0, ptr %2, align 8, !tbaa !7
  %3 = load ptr, ptr %2, align 8, !tbaa !7
  %4 = getelementptr inbounds nuw %struct.Abc_Ntk_t_, ptr %3, i32 0, i32 7
  %5 = load ptr, ptr %4, align 8, !tbaa !30
  %6 = call i32 @Vec_PtrSize(ptr noundef %5)
  ret i32 %6
}

; Function Attrs: inlinehint nounwind uwtable
define internal ptr @Abc_ObjFanout0(ptr noundef %0) #4 {
  %2 = alloca ptr, align 8
  store ptr %0, ptr %2, align 8, !tbaa !53
  %3 = load ptr, ptr %2, align 8, !tbaa !53
  %4 = getelementptr inbounds nuw %struct.Abc_Obj_t_, ptr %3, i32 0, i32 0
  %5 = load ptr, ptr %4, align 8, !tbaa !83
  %6 = getelementptr inbounds nuw %struct.Abc_Ntk_t_, ptr %5, i32 0, i32 5
  %7 = load ptr, ptr %6, align 8, !tbaa !27
  %8 = getelementptr inbounds nuw %struct.Vec_Ptr_t_, ptr %7, i32 0, i32 2
  %9 = load ptr, ptr %8, align 8, !tbaa !46
  %10 = load ptr, ptr %2, align 8, !tbaa !53
  %11 = getelementptr inbounds nuw %struct.Abc_Obj_t_, ptr %10, i32 0, i32 5
  %12 = getelementptr inbounds nuw %struct.Vec_Int_t_, ptr %11, i32 0, i32 2
  %13 = load ptr, ptr %12, align 8, !tbaa !89
  %14 = getelementptr inbounds i32, ptr %13, i64 0
  %15 = load i32, ptr %14, align 4, !tbaa !3
  %16 = sext i32 %15 to i64
  %17 = getelementptr inbounds ptr, ptr %9, i64 %16
  %18 = load ptr, ptr %17, align 8, !tbaa !47
  ret ptr %18
}

; Function Attrs: inlinehint nounwind uwtable
define internal ptr @Abc_NtkCreateBi(ptr noundef %0) #4 {
  %2 = alloca ptr, align 8
  store ptr %0, ptr %2, align 8, !tbaa !7
  %3 = load ptr, ptr %2, align 8, !tbaa !7
  %4 = call ptr @Abc_NtkCreateObj(ptr noundef %3, i32 noundef 4)
  ret ptr %4
}

; Function Attrs: inlinehint nounwind uwtable
define internal ptr @Abc_NtkPi(ptr noundef %0, i32 noundef %1) #4 {
  %3 = alloca ptr, align 8
  %4 = alloca i32, align 4
  store ptr %0, ptr %3, align 8, !tbaa !7
  store i32 %1, ptr %4, align 4, !tbaa !3
  %5 = load ptr, ptr %3, align 8, !tbaa !7
  %6 = getelementptr inbounds nuw %struct.Abc_Ntk_t_, ptr %5, i32 0, i32 6
  %7 = load ptr, ptr %6, align 8, !tbaa !29
  %8 = load i32, ptr %4, align 4, !tbaa !3
  %9 = call ptr @Vec_PtrEntry(ptr noundef %7, i32 noundef %8)
  ret ptr %9
}

; Function Attrs: inlinehint nounwind uwtable
define internal i32 @Abc_NtkPiNum(ptr noundef %0) #4 {
  %2 = alloca ptr, align 8
  store ptr %0, ptr %2, align 8, !tbaa !7
  %3 = load ptr, ptr %2, align 8, !tbaa !7
  %4 = getelementptr inbounds nuw %struct.Abc_Ntk_t_, ptr %3, i32 0, i32 6
  %5 = load ptr, ptr %4, align 8, !tbaa !29
  %6 = call i32 @Vec_PtrSize(ptr noundef %5)
  ret i32 %6
}

; Function Attrs: inlinehint nounwind uwtable
define internal ptr @Abc_NtkCreateBlackbox(ptr noundef %0) #4 {
  %2 = alloca ptr, align 8
  store ptr %0, ptr %2, align 8, !tbaa !7
  %3 = load ptr, ptr %2, align 8, !tbaa !7
  %4 = call ptr @Abc_NtkCreateObj(ptr noundef %3, i32 noundef 10)
  ret ptr %4
}

; Function Attrs: inlinehint nounwind uwtable
define internal i32 @Abc_NtkBoxNum(ptr noundef %0) #4 {
  %2 = alloca ptr, align 8
  store ptr %0, ptr %2, align 8, !tbaa !7
  %3 = load ptr, ptr %2, align 8, !tbaa !7
  %4 = getelementptr inbounds nuw %struct.Abc_Ntk_t_, ptr %3, i32 0, i32 11
  %5 = load ptr, ptr %4, align 8, !tbaa !33
  %6 = call i32 @Vec_PtrSize(ptr noundef %5)
  ret i32 %6
}

; Function Attrs: inlinehint nounwind uwtable
define internal i32 @Abc_NtkHasBlackbox(ptr noundef %0) #4 {
  %2 = alloca ptr, align 8
  store ptr %0, ptr %2, align 8, !tbaa !7
  %3 = load ptr, ptr %2, align 8, !tbaa !7
  %4 = getelementptr inbounds nuw %struct.Abc_Ntk_t_, ptr %3, i32 0, i32 1
  %5 = load i32, ptr %4, align 4, !tbaa !26
  %6 = icmp eq i32 %5, 6
  %7 = zext i1 %6 to i32
  ret i32 %7
}

; Function Attrs: nounwind uwtable
define void @Abc_NtkFinalizeRead(ptr noundef %0) #0 {
  %2 = alloca ptr, align 8
  %3 = alloca ptr, align 8
  %4 = alloca ptr, align 8
  %5 = alloca ptr, align 8
  %6 = alloca ptr, align 8
  %7 = alloca i32, align 4
  %8 = alloca i32, align 4
  store ptr %0, ptr %2, align 8, !tbaa !7
  call void @llvm.lifetime.start.p0(i64 8, ptr %3) #11
  call void @llvm.lifetime.start.p0(i64 8, ptr %4) #11
  call void @llvm.lifetime.start.p0(i64 8, ptr %5) #11
  call void @llvm.lifetime.start.p0(i64 8, ptr %6) #11
  call void @llvm.lifetime.start.p0(i64 4, ptr %7) #11
  %9 = load ptr, ptr %2, align 8, !tbaa !7
  %10 = call i32 @Abc_NtkHasBlackbox(ptr noundef %9)
  %11 = icmp ne i32 %10, 0
  br i1 %11, label %12, label %65

12:                                               ; preds = %1
  %13 = load ptr, ptr %2, align 8, !tbaa !7
  %14 = call i32 @Abc_NtkBoxNum(ptr noundef %13)
  %15 = icmp eq i32 %14, 0
  br i1 %15, label %16, label %65

16:                                               ; preds = %12
  %17 = load ptr, ptr %2, align 8, !tbaa !7
  %18 = call ptr @Abc_NtkCreateBlackbox(ptr noundef %17)
  store ptr %18, ptr %3, align 8, !tbaa !53
  store i32 0, ptr %7, align 4, !tbaa !3
  br label %19

19:                                               ; preds = %38, %16
  %20 = load i32, ptr %7, align 4, !tbaa !3
  %21 = load ptr, ptr %2, align 8, !tbaa !7
  %22 = call i32 @Abc_NtkPiNum(ptr noundef %21)
  %23 = icmp slt i32 %20, %22
  br i1 %23, label %24, label %28

24:                                               ; preds = %19
  %25 = load ptr, ptr %2, align 8, !tbaa !7
  %26 = load i32, ptr %7, align 4, !tbaa !3
  %27 = call ptr @Abc_NtkPi(ptr noundef %25, i32 noundef %26)
  store ptr %27, ptr %4, align 8, !tbaa !53
  br label %28

28:                                               ; preds = %24, %19
  %29 = phi i1 [ false, %19 ], [ true, %24 ]
  br i1 %29, label %30, label %41

30:                                               ; preds = %28
  %31 = load ptr, ptr %2, align 8, !tbaa !7
  %32 = call ptr @Abc_NtkCreateBi(ptr noundef %31)
  store ptr %32, ptr %5, align 8, !tbaa !53
  %33 = load ptr, ptr %5, align 8, !tbaa !53
  %34 = load ptr, ptr %4, align 8, !tbaa !53
  %35 = call ptr @Abc_ObjFanout0(ptr noundef %34)
  call void @Abc_ObjAddFanin(ptr noundef %33, ptr noundef %35)
  %36 = load ptr, ptr %3, align 8, !tbaa !53
  %37 = load ptr, ptr %5, align 8, !tbaa !53
  call void @Abc_ObjAddFanin(ptr noundef %36, ptr noundef %37)
  br label %38

38:                                               ; preds = %30
  %39 = load i32, ptr %7, align 4, !tbaa !3
  %40 = add nsw i32 %39, 1
  store i32 %40, ptr %7, align 4, !tbaa !3
  br label %19, !llvm.loop !87

41:                                               ; preds = %28
  store i32 0, ptr %7, align 4, !tbaa !3
  br label %42

42:                                               ; preds = %61, %41
  %43 = load i32, ptr %7, align 4, !tbaa !3
  %44 = load ptr, ptr %2, align 8, !tbaa !7
  %45 = call i32 @Abc_NtkPoNum(ptr noundef %44)
  %46 = icmp slt i32 %43, %45
  br i1 %46, label %47, label %51

47:                                               ; preds = %42
  %48 = load ptr, ptr %2, align 8, !tbaa !7
  %49 = load i32, ptr %7, align 4, !tbaa !3
  %50 = call ptr @Abc_NtkPo(ptr noundef %48, i32 noundef %49)
  store ptr %50, ptr %4, align 8, !tbaa !53
  br label %51

51:                                               ; preds = %47, %42
  %52 = phi i1 [ false, %42 ], [ true, %47 ]
  br i1 %52, label %53, label %64

53:                                               ; preds = %51
  %54 = load ptr, ptr %2, align 8, !tbaa !7
  %55 = call ptr @Abc_NtkCreateBo(ptr noundef %54)
  store ptr %55, ptr %5, align 8, !tbaa !53
  %56 = load ptr, ptr %5, align 8, !tbaa !53
  %57 = load ptr, ptr %3, align 8, !tbaa !53
  call void @Abc_ObjAddFanin(ptr noundef %56, ptr noundef %57)
  %58 = load ptr, ptr %4, align 8, !tbaa !53
  %59 = call ptr @Abc_ObjFanin0(ptr noundef %58)
  %60 = load ptr, ptr %5, align 8, !tbaa !53
  call void @Abc_ObjAddFanin(ptr noundef %59, ptr noundef %60)
  br label %61

61:                                               ; preds = %53
  %62 = load i32, ptr %7, align 4, !tbaa !3
  %63 = add nsw i32 %62, 1
  store i32 %63, ptr %7, align 4, !tbaa !3
  br label %42, !llvm.loop !88

64:                                               ; preds = %51
  store i32 1, ptr %8, align 4
  br label %110

65:                                               ; preds = %12, %1
  %66 = load ptr, ptr %2, align 8, !tbaa !7
  %67 = call ptr @Abc_NtkFindNet(ptr noundef %66, ptr noundef @.str.1)
  store ptr %67, ptr %6, align 8, !tbaa !53
  %68 = load ptr, ptr %6, align 8, !tbaa !53
  %69 = icmp ne ptr %68, null
  br i1 %69, label %70, label %86

70:                                               ; preds = %65
  %71 = load ptr, ptr %6, align 8, !tbaa !53
  %72 = call i32 @Abc_ObjFanoutNum(ptr noundef %71)
  %73 = icmp eq i32 %72, 0
  br i1 %73, label %74, label %76

74:                                               ; preds = %70
  %75 = load ptr, ptr %6, align 8, !tbaa !53
  call void @Abc_NtkDeleteObj(ptr noundef %75)
  br label %85

76:                                               ; preds = %70
  %77 = load ptr, ptr %6, align 8, !tbaa !53
  %78 = call i32 @Abc_ObjFaninNum(ptr noundef %77)
  %79 = icmp eq i32 %78, 0
  br i1 %79, label %80, label %84

80:                                               ; preds = %76
  %81 = load ptr, ptr %6, align 8, !tbaa !53
  %82 = load ptr, ptr %2, align 8, !tbaa !7
  %83 = call ptr @Abc_NtkCreateNodeConst0(ptr noundef %82)
  call void @Abc_ObjAddFanin(ptr noundef %81, ptr noundef %83)
  br label %84

84:                                               ; preds = %80, %76
  br label %85

85:                                               ; preds = %84, %74
  br label %86

86:                                               ; preds = %85, %65
  %87 = load ptr, ptr %2, align 8, !tbaa !7
  %88 = call ptr @Abc_NtkFindNet(ptr noundef %87, ptr noundef @.str.2)
  store ptr %88, ptr %6, align 8, !tbaa !53
  %89 = load ptr, ptr %6, align 8, !tbaa !53
  %90 = icmp ne ptr %89, null
  br i1 %90, label %91, label %107

91:                                               ; preds = %86
  %92 = load ptr, ptr %6, align 8, !tbaa !53
  %93 = call i32 @Abc_ObjFanoutNum(ptr noundef %92)
  %94 = icmp eq i32 %93, 0
  br i1 %94, label %95, label %97

95:                                               ; preds = %91
  %96 = load ptr, ptr %6, align 8, !tbaa !53
  call void @Abc_NtkDeleteObj(ptr noundef %96)
  br label %106

97:                                               ; preds = %91
  %98 = load ptr, ptr %6, align 8, !tbaa !53
  %99 = call i32 @Abc_ObjFaninNum(ptr noundef %98)
  %100 = icmp eq i32 %99, 0
  br i1 %100, label %101, label %105

101:                                              ; preds = %97
  %102 = load ptr, ptr %6, align 8, !tbaa !53
  %103 = load ptr, ptr %2, align 8, !tbaa !7
  %104 = call ptr @Abc_NtkCreateNodeConst1(ptr noundef %103)
  call void @Abc_ObjAddFanin(ptr noundef %102, ptr noundef %104)
  br label %105

105:                                              ; preds = %101, %97
  br label %106

106:                                              ; preds = %105, %95
  br label %107

107:                                              ; preds = %106, %86
  %108 = load ptr, ptr %2, align 8, !tbaa !7
  call void @Abc_NtkFixNonDrivenNets(ptr noundef %108)
  %109 = load ptr, ptr %2, align 8, !tbaa !7
  call void @Abc_NtkOrderCisCos(ptr noundef %109)
  store i32 0, ptr %8, align 4
  br label %110

110:                                              ; preds = %107, %64
  call void @llvm.lifetime.end.p0(i64 4, ptr %7) #11
  call void @llvm.lifetime.end.p0(i64 8, ptr %6) #11
  call void @llvm.lifetime.end.p0(i64 8, ptr %5) #11
  call void @llvm.lifetime.end.p0(i64 8, ptr %4) #11
  call void @llvm.lifetime.end.p0(i64 8, ptr %3) #11
  %111 = load i32, ptr %8, align 4
  switch i32 %111, label %113 [
    i32 0, label %112
    i32 1, label %112
  ]

112:                                              ; preds = %110, %110
  ret void

113:                                              ; preds = %110
  unreachable
}