; Function Attrs: nounwind uwtable
define void @Abc_NtkFinalizeRead(ptr noundef %0) local_unnamed_addr #0 {
  %2 = getelementptr i8, ptr %0, i64 4
  %.val = load i32, ptr %2, align 4, !tbaa !24
  %.not = icmp eq i32 %.val, 6
  br i1 %.not, label %3, label %41

3:                                                ; preds = %1
  %4 = getelementptr i8, ptr %0, i64 80
  %.val50 = load ptr, ptr %4, align 8, !tbaa !35
  %5 = getelementptr i8, ptr %.val50, i64 4
  %.val50.val = load i32, ptr %5, align 4, !tbaa !25
  %6 = icmp eq i32 %.val50.val, 0
  br i1 %6, label %7, label %41

7:                                                ; preds = %3
  %8 = tail call ptr @Abc_NtkCreateObj(ptr noundef nonnull %0, i32 noundef 10) #20
  %9 = getelementptr i8, ptr %0, i64 40
  %.val4457 = load ptr, ptr %9, align 8, !tbaa !31
  %10 = getelementptr i8, ptr %.val4457, i64 4
  %.val44.val58 = load i32, ptr %10, align 4, !tbaa !25
  %11 = icmp sgt i32 %.val44.val58, 0
  br i1 %11, label %.lr.ph, label %.critedge.preheader

.critedge.preheader:                              ; preds = %.lr.ph, %7
  %12 = getelementptr i8, ptr %0, i64 48
  %.val4661 = load ptr, ptr %12, align 8, !tbaa !32
  %13 = getelementptr i8, ptr %.val4661, i64 4
  %.val46.val62 = load i32, ptr %13, align 4, !tbaa !25
  %14 = icmp sgt i32 %.val46.val62, 0
  br i1 %14, label %.critedge, label %.critedge2

.lr.ph:                                           ; preds = %7, %.lr.ph
  %indvars.iv = phi i64 [ %indvars.iv.next, %.lr.ph ], [ 0, %7 ]
  %.val4460 = phi ptr [ %.val44, %.lr.ph ], [ %.val4457, %7 ]
  %15 = getelementptr i8, ptr %.val4460, i64 8
  %.val45.val = load ptr, ptr %15, align 8, !tbaa !28
  %16 = getelementptr inbounds nuw ptr, ptr %.val45.val, i64 %indvars.iv
  %17 = load ptr, ptr %16, align 8, !tbaa !40
  %18 = tail call ptr @Abc_NtkCreateObj(ptr noundef nonnull %0, i32 noundef 4) #20
  %.val51 = load ptr, ptr %17, align 8, !tbaa !75
  %19 = getelementptr i8, ptr %17, i64 48
  %.val52 = load ptr, ptr %19, align 8, !tbaa !82
  %20 = getelementptr i8, ptr %.val51, i64 32
  %.val51.val = load ptr, ptr %20, align 8, !tbaa !29
  %.val52.val = load i32, ptr %.val52, align 4, !tbaa !57
  %21 = getelementptr i8, ptr %.val51.val, i64 8
  %.val51.val.val = load ptr, ptr %21, align 8, !tbaa !28
  %22 = sext i32 %.val52.val to i64
  %23 = getelementptr inbounds ptr, ptr %.val51.val.val, i64 %22
  %24 = load ptr, ptr %23, align 8, !tbaa !40
  tail call void @Abc_ObjAddFanin(ptr noundef %18, ptr noundef %24) #20
  tail call void @Abc_ObjAddFanin(ptr noundef %8, ptr noundef %18) #20
  %indvars.iv.next = add nuw nsw i64 %indvars.iv, 1
  %.val44 = load ptr, ptr %9, align 8, !tbaa !31
  %25 = getelementptr i8, ptr %.val44, i64 4
  %.val44.val = load i32, ptr %25, align 4, !tbaa !25
  %26 = sext i32 %.val44.val to i64
  %27 = icmp slt i64 %indvars.iv.next, %26
  br i1 %27, label %.lr.ph, label %.critedge.preheader, !llvm.loop !83

.critedge:                                        ; preds = %.critedge.preheader, %.critedge
  %indvars.iv68 = phi i64 [ %indvars.iv.next69, %.critedge ], [ 0, %.critedge.preheader ]
  %.val4664 = phi ptr [ %.val46, %.critedge ], [ %.val4661, %.critedge.preheader ]
  %28 = getelementptr i8, ptr %.val4664, i64 8
  %.val47.val = load ptr, ptr %28, align 8, !tbaa !28
  %29 = getelementptr inbounds nuw ptr, ptr %.val47.val, i64 %indvars.iv68
  %30 = load ptr, ptr %29, align 8, !tbaa !40
  %31 = tail call ptr @Abc_NtkCreateObj(ptr noundef nonnull %0, i32 noundef 5) #20
  tail call void @Abc_ObjAddFanin(ptr noundef %31, ptr noundef %8) #20
  %.val48 = load ptr, ptr %30, align 8, !tbaa !75
  %32 = getelementptr i8, ptr %30, i64 32
  %.val49 = load ptr, ptr %32, align 8, !tbaa !78
  %33 = getelementptr i8, ptr %.val48, i64 32
  %.val48.val = load ptr, ptr %33, align 8, !tbaa !29
  %.val49.val = load i32, ptr %.val49, align 4, !tbaa !57
  %34 = getelementptr i8, ptr %.val48.val, i64 8
  %.val48.val.val = load ptr, ptr %34, align 8, !tbaa !28
  %35 = sext i32 %.val49.val to i64
  %36 = getelementptr inbounds ptr, ptr %.val48.val.val, i64 %35
  %37 = load ptr, ptr %36, align 8, !tbaa !40
  tail call void @Abc_ObjAddFanin(ptr noundef %37, ptr noundef %31) #20
  %indvars.iv.next69 = add nuw nsw i64 %indvars.iv68, 1
  %.val46 = load ptr, ptr %12, align 8, !tbaa !32
  %38 = getelementptr i8, ptr %.val46, i64 4
  %.val46.val = load i32, ptr %38, align 4, !tbaa !25
  %39 = sext i32 %.val46.val to i64
  %40 = icmp slt i64 %indvars.iv.next69, %39
  br i1 %40, label %.critedge, label %.critedge2, !llvm.loop !84

41:                                               ; preds = %3, %1
  %42 = tail call ptr @Abc_NtkFindNet(ptr noundef nonnull %0, ptr noundef nonnull @.str.1) #20
  %.not42 = icmp eq ptr %42, null
  br i1 %.not42, label %52, label %43

43:                                               ; preds = %41
  %44 = getelementptr i8, ptr %42, i64 44
  %.val53 = load i32, ptr %44, align 4, !tbaa !85
  %45 = icmp eq i32 %.val53, 0
  br i1 %45, label %46, label %47

46:                                               ; preds = %43
  tail call void @Abc_NtkDeleteObj(ptr noundef nonnull %42) #20
  br label %52

47:                                               ; preds = %43
  %48 = getelementptr i8, ptr %42, i64 28
  %.val55 = load i32, ptr %48, align 4, !tbaa !86
  %49 = icmp eq i32 %.val55, 0
  br i1 %49, label %50, label %52

50:                                               ; preds = %47
  %51 = tail call ptr @Abc_NtkCreateNodeConst0(ptr noundef nonnull %0) #20
  tail call void @Abc_ObjAddFanin(ptr noundef nonnull %42, ptr noundef %51) #20
  br label %52

52:                                               ; preds = %46, %50, %47, %41
  %53 = tail call ptr @Abc_NtkFindNet(ptr noundef nonnull %0, ptr noundef nonnull @.str.2) #20
  %.not43 = icmp eq ptr %53, null
  br i1 %.not43, label %63, label %54

54:                                               ; preds = %52
  %55 = getelementptr i8, ptr %53, i64 44
  %.val54 = load i32, ptr %55, align 4, !tbaa !85
  %56 = icmp eq i32 %.val54, 0
  br i1 %56, label %57, label %58

57:                                               ; preds = %54
  tail call void @Abc_NtkDeleteObj(ptr noundef nonnull %53) #20
  br label %63

58:                                               ; preds = %54
  %59 = getelementptr i8, ptr %53, i64 28
  %.val56 = load i32, ptr %59, align 4, !tbaa !86
  %60 = icmp eq i32 %.val56, 0
  br i1 %60, label %61, label %63

61:                                               ; preds = %58
  %62 = tail call ptr @Abc_NtkCreateNodeConst1(ptr noundef nonnull %0) #20
  tail call void @Abc_ObjAddFanin(ptr noundef nonnull %53, ptr noundef %62) #20
  br label %63

63:                                               ; preds = %57, %61, %58, %52
  tail call void @Abc_NtkFixNonDrivenNets(ptr noundef nonnull %0)
  tail call void @Abc_NtkOrderCisCos(ptr noundef nonnull %0) #20
  br label %.critedge2

.critedge2:                                       ; preds = %.critedge, %.critedge.preheader, %63
  ret void
}